target datalayout = "e-m:e-p270:32:32-p271:32:32-p272:64:64-i64:64-i128:128-f80:128-n8:16:32:64-S128"
target triple = "x86_64-pc-linux-gnu"

@EVUTIL_ISPRINT_TABLE = internal constant [8 x i32] [i32 0, i32 -1, i32 -1, i32 2147483647, i32 0, i32 0, i32 0, i32 0], align 16

; Function Attrs: nounwind uwtable
define hidden i32 @EVUTIL_ISPRINT_(i8 noundef signext %0) #0 {
  %2 = alloca i8, align 1
  %3 = alloca i8, align 1
  store i8 %0, ptr %2, align 1
  call void @llvm.lifetime.start.p0(i64 1, ptr %3) #11
  %4 = load i8, ptr %2, align 1
  store i8 %4, ptr %3, align 1
  %5 = load i8, ptr %3, align 1
  %6 = zext i8 %5 to i32
  %7 = ashr i32 %6, 5
  %8 = and i32 %7, 7
  %9 = sext i32 %8 to i64
  %10 = getelementptr inbounds [8 x i32], ptr @EVUTIL_ISPRINT_TABLE, i64 0, i64 %9
  %11 = load i32, ptr %10, align 4
  %12 = load i8, ptr %3, align 1
  %13 = zext i8 %12 to i32
  %14 = and i32 %13, 31
  %15 = shl i32 1, %14
  %16 = and i32 %11, %15
  %17 = icmp ne i32 %16, 0
  %18 = xor i1 %17, true
  %19 = xor i1 %18, true
  %20 = zext i1 %19 to i32
  call void @llvm.lifetime.end.p0(i64 1, ptr %3) #11
  ret i32 %20
}